target datalayout = "e-m:e-p270:32:32-p271:32:32-p272:64:64-i64:64-i128:128-f80:128-n8:16:32:64-S128"
target triple = "x86_64-pc-linux-gnu"

%struct.queued_request_t = type { ptr, i64, i64 }

; Function Attrs: nounwind uwtable
define internal i32 @_find_request(ptr noundef %0, ptr noundef %1) #0 {
  %3 = alloca i32, align 4
  %4 = alloca ptr, align 8
  %5 = alloca ptr, align 8
  %6 = alloca ptr, align 8
  %7 = alloca ptr, align 8
  %8 = alloca i32, align 4
  store ptr %0, ptr %4, align 8
  store ptr %1, ptr %5, align 8
  call void @llvm.lifetime.start.p0(i64 8, ptr %6) #10
  %9 = load ptr, ptr %4, align 8
  store ptr %9, ptr %6, align 8
  call void @llvm.lifetime.start.p0(i64 8, ptr %7) #10
  %10 = load ptr, ptr %5, align 8
  store ptr %10, ptr %7, align 8
  %11 = load ptr, ptr %7, align 8
  %12 = load double, ptr %11, align 8
  %13 = fcmp une double %12, 0.000000e+00
  br i1 %13, label %20, label %14

14:                                               ; preds = %2
  %15 = load ptr, ptr %6, align 8
  %16 = getelementptr inbounds nuw %struct.queued_request_t, ptr %15, i32 0, i32 2
  %17 = load i64, ptr %16, align 8
  %18 = icmp eq i64 %17, 0
  br i1 %18, label %19, label %20

19:                                               ; preds = %14
  store i32 1, ptr %3, align 4
  store i32 1, ptr %8, align 4
  br label %31

20:                                               ; preds = %14, %2
  %21 = load ptr, ptr %6, align 8
  %22 = getelementptr inbounds nuw %struct.queued_request_t, ptr %21, i32 0, i32 2
  %23 = load i64, ptr %22, align 8
  %24 = sitofp i64 %23 to double
  %25 = load ptr, ptr %7, align 8
  %26 = load double, ptr %25, align 8
  %27 = fcmp olt double %24, %26
  br i1 %27, label %28, label %29

28:                                               ; preds = %20
  store i32 1, ptr %3, align 4
  store i32 1, ptr %8, align 4
  br label %31

29:                                               ; preds = %20
  br label %30

30:                                               ; preds = %29
  store i32 0, ptr %3, align 4
  store i32 1, ptr %8, align 4
  br label %31

31:                                               ; preds = %30, %28, %19
  call void @llvm.lifetime.end.p0(i64 8, ptr %7) #10
  call void @llvm.lifetime.end.p0(i64 8, ptr %6) #10
  %32 = load i32, ptr %3, align 4
  ret i32 %32
}