; Function Attrs: mustprogress nofree norecurse nosync nounwind willreturn memory(argmem: read) uwtable
define internal range(i32 0, 2) i32 @_find_request(ptr noundef readonly captures(none) %0, ptr noundef readonly captures(none) %1) #9 {
  %3 = load double, ptr %1, align 8
  %4 = fcmp oeq double %3, 0.000000e+00
  %.phi.trans.insert = getelementptr inbounds nuw i8, ptr %0, i64 16
  %.pre = load i64, ptr %.phi.trans.insert, align 8
  %5 = icmp eq i64 %.pre, 0
  %or.cond = select i1 %4, i1 %5, i1 false
  %6 = sitofp i64 %.pre to double
  %7 = fcmp ogt double %3, %6
  %narrow = select i1 %or.cond, i1 true, i1 %7
  %.0 = zext i1 %narrow to i32
  ret i32 %.0
}